target datalayout = "e-m:e-p270:32:32-p271:32:32-p272:64:64-i64:64-i128:128-f80:128-n8:16:32:64-S128"
target triple = "x86_64-pc-linux-gnu"

%struct.mbedtls_ecp_group = type { i32, %struct.mbedtls_mpi, %struct.mbedtls_mpi, %struct.mbedtls_mpi, %struct.mbedtls_ecp_point, %struct.mbedtls_mpi, i64, i64, i32, ptr, ptr, ptr, ptr, ptr, i64 }
%struct.mbedtls_ecp_point = type { %struct.mbedtls_mpi, %struct.mbedtls_mpi, %struct.mbedtls_mpi }
%struct.mbedtls_mpi = type { ptr, i16, i16 }
%struct.mbedtls_ecp_keypair = type { %struct.mbedtls_ecp_group, %struct.mbedtls_mpi, %struct.mbedtls_ecp_point }

; Function Attrs: nounwind uwtable
define hidden i32 @mbedtls_ecp_copy(ptr noundef %0, ptr noundef %1) #0 {
  %3 = alloca ptr, align 8
  %4 = alloca ptr, align 8
  %5 = alloca i32, align 4
  store ptr %0, ptr %3, align 8, !tbaa !34
  store ptr %1, ptr %4, align 8, !tbaa !34
  call void @llvm.lifetime.start.p0(i64 4, ptr %5) #11
  store i32 -110, ptr %5, align 4, !tbaa !3
  br label %6

6:                                                ; preds = %2
  %7 = load ptr, ptr %3, align 8, !tbaa !34
  %8 = getelementptr inbounds nuw %struct.mbedtls_ecp_point, ptr %7, i32 0, i32 0
  %9 = load ptr, ptr %4, align 8, !tbaa !34
  %10 = getelementptr inbounds nuw %struct.mbedtls_ecp_point, ptr %9, i32 0, i32 0
  %11 = call i32 @mbedtls_mpi_copy(ptr noundef %8, ptr noundef %10)
  store i32 %11, ptr %5, align 4, !tbaa !3
  %12 = icmp ne i32 %11, 0
  br i1 %12, label %13, label %14

13:                                               ; preds = %6
  br label %39

14:                                               ; preds = %6
  br label %15

15:                                               ; preds = %14
  br label %16

16:                                               ; preds = %15
  br label %17

17:                                               ; preds = %16
  %18 = load ptr, ptr %3, align 8, !tbaa !34
  %19 = getelementptr inbounds nuw %struct.mbedtls_ecp_point, ptr %18, i32 0, i32 1
  %20 = load ptr, ptr %4, align 8, !tbaa !34
  %21 = getelementptr inbounds nuw %struct.mbedtls_ecp_point, ptr %20, i32 0, i32 1
  %22 = call i32 @mbedtls_mpi_copy(ptr noundef %19, ptr noundef %21)
  store i32 %22, ptr %5, align 4, !tbaa !3
  %23 = icmp ne i32 %22, 0
  br i1 %23, label %24, label %25

24:                                               ; preds = %17
  br label %39

25:                                               ; preds = %17
  br label %26

26:                                               ; preds = %25
  br label %27

27:                                               ; preds = %26
  br label %28

28:                                               ; preds = %27
  %29 = load ptr, ptr %3, align 8, !tbaa !34
  %30 = getelementptr inbounds nuw %struct.mbedtls_ecp_point, ptr %29, i32 0, i32 2
  %31 = load ptr, ptr %4, align 8, !tbaa !34
  %32 = getelementptr inbounds nuw %struct.mbedtls_ecp_point, ptr %31, i32 0, i32 2
  %33 = call i32 @mbedtls_mpi_copy(ptr noundef %30, ptr noundef %32)
  store i32 %33, ptr %5, align 4, !tbaa !3
  %34 = icmp ne i32 %33, 0
  br i1 %34, label %35, label %36

35:                                               ; preds = %28
  br label %39

36:                                               ; preds = %28
  br label %37

37:                                               ; preds = %36
  br label %38

38:                                               ; preds = %37
  br label %39

39:                                               ; preds = %38, %35, %24, %13
  %40 = load i32, ptr %5, align 4, !tbaa !3
  call void @llvm.lifetime.end.p0(i64 4, ptr %5) #11
  ret i32 %40
}

; Function Attrs: nounwind uwtable
define hidden i32 @mbedtls_ecp_set_public_key(i32 noundef %0, ptr noundef %1, ptr noundef %2) #0 {
  %4 = alloca i32, align 4
  %5 = alloca i32, align 4
  %6 = alloca ptr, align 8
  %7 = alloca ptr, align 8
  %8 = alloca i32, align 4
  %9 = alloca i32, align 4
  store i32 %0, ptr %5, align 4, !tbaa !3
  store ptr %1, ptr %6, align 8, !tbaa !45
  store ptr %2, ptr %7, align 8, !tbaa !34
  call void @llvm.lifetime.start.p0(i64 4, ptr %8) #11
  store i32 -110, ptr %8, align 4, !tbaa !3
  %10 = load ptr, ptr %6, align 8, !tbaa !45
  %11 = getelementptr inbounds nuw %struct.mbedtls_ecp_keypair, ptr %10, i32 0, i32 0
  %12 = getelementptr inbounds nuw %struct.mbedtls_ecp_group, ptr %11, i32 0, i32 0
  %13 = load i32, ptr %12, align 8, !tbaa !59
  %14 = icmp eq i32 %13, 0
  br i1 %14, label %15, label %24

15:                                               ; preds = %3
  %16 = load ptr, ptr %6, align 8, !tbaa !45
  %17 = getelementptr inbounds nuw %struct.mbedtls_ecp_keypair, ptr %16, i32 0, i32 0
  %18 = load i32, ptr %5, align 4, !tbaa !3
  %19 = call i32 @mbedtls_ecp_group_load(ptr noundef %17, i32 noundef %18)
  store i32 %19, ptr %8, align 4, !tbaa !3
  %20 = icmp ne i32 %19, 0
  br i1 %20, label %21, label %23

21:                                               ; preds = %15
  %22 = load i32, ptr %8, align 4, !tbaa !3
  store i32 %22, ptr %4, align 4
  store i32 1, ptr %9, align 4
  br label %38

23:                                               ; preds = %15
  br label %33

24:                                               ; preds = %3
  %25 = load ptr, ptr %6, align 8, !tbaa !45
  %26 = getelementptr inbounds nuw %struct.mbedtls_ecp_keypair, ptr %25, i32 0, i32 0
  %27 = getelementptr inbounds nuw %struct.mbedtls_ecp_group, ptr %26, i32 0, i32 0
  %28 = load i32, ptr %27, align 8, !tbaa !59
  %29 = load i32, ptr %5, align 4, !tbaa !3
  %30 = icmp ne i32 %28, %29
  br i1 %30, label %31, label %32

31:                                               ; preds = %24
  store i32 -20352, ptr %4, align 4
  store i32 1, ptr %9, align 4
  br label %38

32:                                               ; preds = %24
  br label %33

33:                                               ; preds = %32, %23
  %34 = load ptr, ptr %6, align 8, !tbaa !45
  %35 = getelementptr inbounds nuw %struct.mbedtls_ecp_keypair, ptr %34, i32 0, i32 2
  %36 = load ptr, ptr %7, align 8, !tbaa !34
  %37 = call i32 @mbedtls_ecp_copy(ptr noundef %35, ptr noundef %36)
  store i32 %37, ptr %4, align 4
  store i32 1, ptr %9, align 4
  br label %38

38:                                               ; preds = %33, %31, %21
  call void @llvm.lifetime.end.p0(i64 4, ptr %8) #11
  %39 = load i32, ptr %4, align 4
  ret i32 %39
}