; Function Attrs: nounwind uwtable
define hidden i32 @mbedtls_ecp_set_public_key(i32 noundef %0, ptr noundef %1, ptr noundef %2) local_unnamed_addr #7 {
  %4 = load i32, ptr %1, align 8, !tbaa !56
  %5 = icmp eq i32 %4, 0
  br i1 %5, label %6, label %8

6:                                                ; preds = %3
  %7 = tail call i32 @mbedtls_ecp_group_load(ptr noundef nonnull %1, i32 noundef %0) #21
  %.not10 = icmp eq i32 %7, 0
  br i1 %.not10, label %9, label %mbedtls_ecp_copy.exit

8:                                                ; preds = %3
  %.not = icmp eq i32 %4, %0
  br i1 %.not, label %9, label %mbedtls_ecp_copy.exit

9:                                                ; preds = %8, %6
  %10 = getelementptr inbounds nuw i8, ptr %1, i64 208
  %11 = tail call i32 @mbedtls_mpi_copy(ptr noundef nonnull %10, ptr noundef %2) #21
  %.not.i = icmp eq i32 %11, 0
  br i1 %.not.i, label %12, label %mbedtls_ecp_copy.exit

12:                                               ; preds = %9
  %13 = getelementptr inbounds nuw i8, ptr %1, i64 224
  %14 = getelementptr inbounds nuw i8, ptr %2, i64 16
  %15 = tail call i32 @mbedtls_mpi_copy(ptr noundef nonnull %13, ptr noundef nonnull %14) #21
  %.not8.i = icmp eq i32 %15, 0
  br i1 %.not8.i, label %16, label %mbedtls_ecp_copy.exit

16:                                               ; preds = %12
  %17 = getelementptr inbounds nuw i8, ptr %1, i64 240
  %18 = getelementptr inbounds nuw i8, ptr %2, i64 32
  %19 = tail call i32 @mbedtls_mpi_copy(ptr noundef nonnull %17, ptr noundef nonnull %18) #21
  br label %mbedtls_ecp_copy.exit

mbedtls_ecp_copy.exit:                            ; preds = %16, %12, %9, %8, %6
  %.0 = phi i32 [ %7, %6 ], [ -20352, %8 ], [ %11, %9 ], [ %15, %12 ], [ %19, %16 ]
  ret i32 %.0
}